target datalayout = "e-m:e-p270:32:32-p271:32:32-p272:64:64-i64:64-i128:128-f80:128-n8:16:32:64-S128"
target triple = "x86_64-pc-linux-gnu"

%"union.zmq::ip_addr_t" = type { %struct.sockaddr_in6 }
%struct.sockaddr_in6 = type { i16, i16, i32, %struct.in6_addr, i32 }
%struct.in6_addr = type { %union.anon }
%union.anon = type { [4 x i32] }
%struct.sockaddr = type { i16, [14 x i8] }
%struct.sockaddr_in = type { i16, i16, %struct.in_addr, [8 x i8] }
%struct.in_addr = type { i32 }
%"class.zmq::tcp_address_mask_t" = type { %"union.zmq::ip_addr_t", i32 }

@stderr = external global ptr, align 8
@.str = private unnamed_addr constant [30 x i8] c"Assertion failed: %s (%s:%d)\0A\00", align 1
@.str.2 = private unnamed_addr constant [111 x i8] c"generated/home/dtcxzyw/WorkSpace/Projects/compilers/llvm-opt-benchmark/bench/libzmq/libzmq/src/tcp_address.cpp\00", align 1
@.str.4 = private unnamed_addr constant [99 x i8] c"_address_mask != -1 && ss_ != NULL && ss_len_ >= static_cast<socklen_t> (sizeof (struct sockaddr))\00", align 1
@.str.5 = private unnamed_addr constant [40 x i8] c"ss_len_ == sizeof (struct sockaddr_in6)\00", align 1
@.str.6 = private unnamed_addr constant [39 x i8] c"ss_len_ == sizeof (struct sockaddr_in)\00", align 1

; Function Attrs: mustprogress uwtable
define noundef zeroext i1 @_ZNK3zmq18tcp_address_mask_t13match_addressEPK8sockaddrj(ptr noundef nonnull align 4 dereferenceable(32) %0, ptr noundef %1, i32 noundef %2) #2 align 2 {
  %4 = alloca i1, align 1
  %5 = alloca ptr, align 8
  %6 = alloca ptr, align 8
  %7 = alloca i32, align 4
  %8 = alloca i32, align 4
  %9 = alloca ptr, align 8
  %10 = alloca ptr, align 8
  %11 = alloca i64, align 8
  %12 = alloca i32, align 4
  %13 = alloca i8, align 1
  store ptr %0, ptr %5, align 8, !tbaa !36
  store ptr %1, ptr %6, align 8, !tbaa !11
  store i32 %2, ptr %7, align 4, !tbaa !13
  %14 = load ptr, ptr %5, align 8
  br label %15

15:                                               ; preds = %3
  %16 = getelementptr inbounds nuw %"class.zmq::tcp_address_mask_t", ptr %14, i32 0, i32 1
  %17 = load i32, ptr %16, align 4, !tbaa !38
  %18 = icmp ne i32 %17, -1
  br i1 %18, label %19, label %25

19:                                               ; preds = %15
  %20 = load ptr, ptr %6, align 8, !tbaa !11
  %21 = icmp ne ptr %20, null
  br i1 %21, label %22, label %25

22:                                               ; preds = %19
  %23 = load i32, ptr %7, align 4, !tbaa !13
  %24 = icmp uge i32 %23, 16
  br label %25

25:                                               ; preds = %22, %19, %15
  %26 = phi i1 [ false, %19 ], [ false, %15 ], [ %24, %22 ]
  %27 = xor i1 %26, true
  %28 = zext i1 %27 to i64
  %29 = call i64 @llvm.expect.i64(i64 %28, i64 0)
  %30 = icmp ne i64 %29, 0
  br i1 %30, label %31, label %36

31:                                               ; preds = %25
  %32 = load ptr, ptr @stderr, align 8, !tbaa !15
  %33 = call i32 (ptr, ptr, ...) @fprintf(ptr noundef %32, ptr noundef @.str, ptr noundef @.str.4, ptr noundef @.str.2, i32 noundef 242) #16
  %34 = load ptr, ptr @stderr, align 8, !tbaa !15
  %35 = call i32 @fflush(ptr noundef %34)
  call void @_ZN3zmq9zmq_abortEPKc(ptr noundef @.str.4)
  br label %36

36:                                               ; preds = %31, %25
  br label %37

37:                                               ; preds = %36
  %38 = load ptr, ptr %6, align 8, !tbaa !11
  %39 = getelementptr inbounds nuw %struct.sockaddr, ptr %38, i32 0, i32 0
  %40 = load i16, ptr %39, align 2, !tbaa !17
  %41 = zext i16 %40 to i32
  %42 = getelementptr inbounds nuw %"class.zmq::tcp_address_mask_t", ptr %14, i32 0, i32 0
  %43 = getelementptr inbounds nuw %struct.sockaddr, ptr %42, i32 0, i32 0
  %44 = load i16, ptr %43, align 4, !tbaa !34
  %45 = zext i16 %44 to i32
  %46 = icmp ne i32 %41, %45
  br i1 %46, label %47, label %48

47:                                               ; preds = %37
  store i1 false, ptr %4, align 1
  br label %152

48:                                               ; preds = %37
  %49 = getelementptr inbounds nuw %"class.zmq::tcp_address_mask_t", ptr %14, i32 0, i32 1
  %50 = load i32, ptr %49, align 4, !tbaa !38
  %51 = icmp sgt i32 %50, 0
  br i1 %51, label %52, label %151

52:                                               ; preds = %48
  call void @llvm.lifetime.start.p0(i64 4, ptr %8) #16
  call void @llvm.lifetime.start.p0(i64 8, ptr %9) #16
  call void @llvm.lifetime.start.p0(i64 8, ptr %10) #16
  %53 = load ptr, ptr %6, align 8, !tbaa !11
  %54 = getelementptr inbounds nuw %struct.sockaddr, ptr %53, i32 0, i32 0
  %55 = load i16, ptr %54, align 2, !tbaa !17
  %56 = zext i16 %55 to i32
  %57 = icmp eq i32 %56, 10
  br i1 %57, label %58, label %79

58:                                               ; preds = %52
  br label %59

59:                                               ; preds = %58
  %60 = load i32, ptr %7, align 4, !tbaa !13
  %61 = zext i32 %60 to i64
  %62 = icmp eq i64 %61, 28
  %63 = xor i1 %62, true
  %64 = zext i1 %63 to i64
  %65 = call i64 @llvm.expect.i64(i64 %64, i64 0)
  %66 = icmp ne i64 %65, 0
  br i1 %66, label %67, label %72

67:                                               ; preds = %59
  %68 = load ptr, ptr @stderr, align 8, !tbaa !15
  %69 = call i32 (ptr, ptr, ...) @fprintf(ptr noundef %68, ptr noundef @.str, ptr noundef @.str.5, ptr noundef @.str.2, i32 noundef 251) #16
  %70 = load ptr, ptr @stderr, align 8, !tbaa !15
  %71 = call i32 @fflush(ptr noundef %70)
  call void @_ZN3zmq9zmq_abortEPKc(ptr noundef @.str.5)
  br label %72

72:                                               ; preds = %67, %59
  br label %73

73:                                               ; preds = %72
  br label %74

74:                                               ; preds = %73
  %75 = load ptr, ptr %6, align 8, !tbaa !11
  %76 = getelementptr inbounds nuw %struct.sockaddr_in6, ptr %75, i32 0, i32 3
  store ptr %76, ptr %10, align 8, !tbaa !20
  %77 = getelementptr inbounds nuw %"class.zmq::tcp_address_mask_t", ptr %14, i32 0, i32 0
  %78 = getelementptr inbounds nuw %struct.sockaddr_in6, ptr %77, i32 0, i32 3
  store ptr %78, ptr %9, align 8, !tbaa !20
  store i32 128, ptr %8, align 4, !tbaa !13
  br label %100

79:                                               ; preds = %52
  br label %80

80:                                               ; preds = %79
  %81 = load i32, ptr %7, align 4, !tbaa !13
  %82 = zext i32 %81 to i64
  %83 = icmp eq i64 %82, 16
  %84 = xor i1 %83, true
  %85 = zext i1 %84 to i64
  %86 = call i64 @llvm.expect.i64(i64 %85, i64 0)
  %87 = icmp ne i64 %86, 0
  br i1 %87, label %88, label %93

88:                                               ; preds = %80
  %89 = load ptr, ptr @stderr, align 8, !tbaa !15
  %90 = call i32 (ptr, ptr, ...) @fprintf(ptr noundef %89, ptr noundef @.str, ptr noundef @.str.6, ptr noundef @.str.2, i32 noundef 259) #16
  %91 = load ptr, ptr @stderr, align 8, !tbaa !15
  %92 = call i32 @fflush(ptr noundef %91)
  call void @_ZN3zmq9zmq_abortEPKc(ptr noundef @.str.6)
  br label %93

93:                                               ; preds = %88, %80
  br label %94

94:                                               ; preds = %93
  br label %95

95:                                               ; preds = %94
  %96 = load ptr, ptr %6, align 8, !tbaa !11
  %97 = getelementptr inbounds nuw %struct.sockaddr_in, ptr %96, i32 0, i32 2
  store ptr %97, ptr %10, align 8, !tbaa !20
  %98 = getelementptr inbounds nuw %"class.zmq::tcp_address_mask_t", ptr %14, i32 0, i32 0
  %99 = getelementptr inbounds nuw %struct.sockaddr_in, ptr %98, i32 0, i32 2
  store ptr %99, ptr %9, align 8, !tbaa !20
  store i32 32, ptr %8, align 4, !tbaa !13
  br label %100

100:                                              ; preds = %95, %74
  %101 = getelementptr inbounds nuw %"class.zmq::tcp_address_mask_t", ptr %14, i32 0, i32 1
  %102 = load i32, ptr %101, align 4, !tbaa !38
  %103 = load i32, ptr %8, align 4, !tbaa !13
  %104 = icmp slt i32 %102, %103
  br i1 %104, label %105, label %108

105:                                              ; preds = %100
  %106 = getelementptr inbounds nuw %"class.zmq::tcp_address_mask_t", ptr %14, i32 0, i32 1
  %107 = load i32, ptr %106, align 4, !tbaa !38
  store i32 %107, ptr %8, align 4, !tbaa !13
  br label %108

108:                                              ; preds = %105, %100
  call void @llvm.lifetime.start.p0(i64 8, ptr %11) #16
  %109 = load i32, ptr %8, align 4, !tbaa !13
  %110 = sdiv i32 %109, 8
  %111 = sext i32 %110 to i64
  store i64 %111, ptr %11, align 8, !tbaa !30
  %112 = load ptr, ptr %9, align 8, !tbaa !20
  %113 = load ptr, ptr %10, align 8, !tbaa !20
  %114 = load i64, ptr %11, align 8, !tbaa !30
  %115 = call i32 @memcmp(ptr noundef %112, ptr noundef %113, i64 noundef %114) #17
  %116 = icmp ne i32 %115, 0
  br i1 %116, label %117, label %118

117:                                              ; preds = %108
  store i1 false, ptr %4, align 1
  store i32 1, ptr %12, align 4
  br label %148

118:                                              ; preds = %108
  call void @llvm.lifetime.start.p0(i64 1, ptr %13) #16
  %119 = load i32, ptr %8, align 4, !tbaa !13
  %120 = srem i32 %119, 8
  %121 = sub nsw i32 8, %120
  %122 = shl i32 255, %121
  %123 = trunc i32 %122 to i8
  store i8 %123, ptr %13, align 1, !tbaa !34
  %124 = load i8, ptr %13, align 1, !tbaa !34
  %125 = icmp ne i8 %124, 0
  br i1 %125, label %126, label %146

126:                                              ; preds = %118
  %127 = load ptr, ptr %10, align 8, !tbaa !20
  %128 = load i64, ptr %11, align 8, !tbaa !30
  %129 = getelementptr inbounds nuw i8, ptr %127, i64 %128
  %130 = load i8, ptr %129, align 1, !tbaa !34
  %131 = zext i8 %130 to i32
  %132 = load i8, ptr %13, align 1, !tbaa !34
  %133 = zext i8 %132 to i32
  %134 = and i32 %131, %133
  %135 = load ptr, ptr %9, align 8, !tbaa !20
  %136 = load i64, ptr %11, align 8, !tbaa !30
  %137 = getelementptr inbounds nuw i8, ptr %135, i64 %136
  %138 = load i8, ptr %137, align 1, !tbaa !34
  %139 = zext i8 %138 to i32
  %140 = load i8, ptr %13, align 1, !tbaa !34
  %141 = zext i8 %140 to i32
  %142 = and i32 %139, %141
  %143 = icmp ne i32 %134, %142
  br i1 %143, label %144, label %145

144:                                              ; preds = %126
  store i1 false, ptr %4, align 1
  store i32 1, ptr %12, align 4
  br label %147

145:                                              ; preds = %126
  br label %146

146:                                              ; preds = %145, %118
  store i32 0, ptr %12, align 4
  br label %147

147:                                              ; preds = %146, %144
  call void @llvm.lifetime.end.p0(i64 1, ptr %13) #16
  br label %148

148:                                              ; preds = %147, %117
  call void @llvm.lifetime.end.p0(i64 8, ptr %11) #16
  call void @llvm.lifetime.end.p0(i64 8, ptr %10) #16
  call void @llvm.lifetime.end.p0(i64 8, ptr %9) #16
  call void @llvm.lifetime.end.p0(i64 4, ptr %8) #16
  %149 = load i32, ptr %12, align 4
  switch i32 %149, label %154 [
    i32 0, label %150
    i32 1, label %152
  ]

150:                                              ; preds = %148
  br label %151

151:                                              ; preds = %150, %48
  store i1 true, ptr %4, align 1
  br label %152

152:                                              ; preds = %151, %148, %47
  %153 = load i1, ptr %4, align 1
  ret i1 %153

154:                                              ; preds = %148
  unreachable
}