; Function Attrs: mustprogress uwtable
define noundef zeroext i1 @_ZNK3zmq18tcp_address_mask_t13match_addressEPK8sockaddrj(ptr noundef nonnull readonly align 4 captures(none) dereferenceable(32) %0, ptr noundef readonly %1, i32 noundef %2) local_unnamed_addr #2 align 2 {
  %4 = getelementptr inbounds nuw i8, ptr %0, i64 28
  %5 = load i32, ptr %4, align 4, !tbaa !32
  %6 = icmp eq i32 %5, -1
  %7 = icmp eq ptr %1, null
  %or.cond.not = or i1 %7, %6
  %8 = icmp ult i32 %2, 16
  %spec.select = or i1 %8, %or.cond.not
  br i1 %spec.select, label %9, label %14, !prof !8

9:                                                ; preds = %3
  %10 = load ptr, ptr @stderr, align 8, !tbaa !9
  %11 = tail call i32 (ptr, ptr, ...) @fprintf(ptr noundef %10, ptr noundef nonnull @.str, ptr noundef nonnull @.str.4, ptr noundef nonnull @.str.2, i32 noundef 242) #17
  %12 = load ptr, ptr @stderr, align 8, !tbaa !9
  %13 = tail call i32 @fflush(ptr noundef %12)
  tail call void @_ZN3zmq9zmq_abortEPKc(ptr noundef nonnull @.str.4)
  br label %14

14:                                               ; preds = %3, %9
  %15 = load i16, ptr %1, align 2, !tbaa !12
  %16 = load i16, ptr %0, align 4, !tbaa !22
  %.not = icmp eq i16 %15, %16
  br i1 %.not, label %17, label %51

17:                                               ; preds = %14
  %18 = load i32, ptr %4, align 4, !tbaa !32
  %19 = icmp sgt i32 %18, 0
  br i1 %19, label %20, label %51

20:                                               ; preds = %17
  %21 = icmp eq i16 %15, 10
  br i1 %21, label %22, label %26

22:                                               ; preds = %20
  %.not34 = icmp eq i32 %2, 28
  br i1 %.not34, label %32, label %23, !prof !36

23:                                               ; preds = %22
  %24 = load ptr, ptr @stderr, align 8, !tbaa !9
  %25 = tail call i32 (ptr, ptr, ...) @fprintf(ptr noundef %24, ptr noundef nonnull @.str, ptr noundef nonnull @.str.5, ptr noundef nonnull @.str.2, i32 noundef 251) #17
  br label %.sink.split

26:                                               ; preds = %20
  %.not33 = icmp eq i32 %2, 16
  br i1 %.not33, label %32, label %27, !prof !36

27:                                               ; preds = %26
  %28 = load ptr, ptr @stderr, align 8, !tbaa !9
  %29 = tail call i32 (ptr, ptr, ...) @fprintf(ptr noundef %28, ptr noundef nonnull @.str, ptr noundef nonnull @.str.6, ptr noundef nonnull @.str.2, i32 noundef 259) #17
  br label %.sink.split

.sink.split:                                      ; preds = %23, %27
  %.str.6.sink = phi ptr [ @.str.6, %27 ], [ @.str.5, %23 ]
  %.sink43.ph = phi i64 [ 4, %27 ], [ 8, %23 ]
  %.026.ph = phi i32 [ 32, %27 ], [ 128, %23 ]
  %30 = load ptr, ptr @stderr, align 8, !tbaa !9
  %31 = tail call i32 @fflush(ptr noundef %30)
  tail call void @_ZN3zmq9zmq_abortEPKc(ptr noundef nonnull %.str.6.sink)
  br label %32

32:                                               ; preds = %.sink.split, %26, %22
  %.sink43 = phi i64 [ 8, %22 ], [ 4, %26 ], [ %.sink43.ph, %.sink.split ]
  %.026 = phi i32 [ 128, %22 ], [ 32, %26 ], [ %.026.ph, %.sink.split ]
  %33 = getelementptr inbounds nuw i8, ptr %1, i64 %.sink43
  %34 = getelementptr inbounds nuw i8, ptr %0, i64 %.sink43
  %35 = load i32, ptr %4, align 4, !tbaa !32
  %spec.select38 = tail call i32 @llvm.smin.i32(i32 %35, i32 %.026)
  %36 = sdiv i32 %spec.select38, 8
  %37 = srem i32 %spec.select38, 8
  %38 = sext i32 %36 to i64
  %bcmp = tail call i32 @bcmp(ptr nonnull %34, ptr nonnull %33, i64 %38)
  %.not35 = icmp eq i32 %bcmp, 0
  br i1 %.not35, label %39, label %.thread

39:                                               ; preds = %32
  %40 = sub nsw i32 8, %37
  %41 = shl nuw nsw i32 255, %40
  %42 = and i32 %41, 255
  %.not36 = icmp eq i32 %42, 0
  br i1 %.not36, label %51, label %43

43:                                               ; preds = %39
  %44 = getelementptr inbounds nuw i8, ptr %33, i64 %38
  %45 = load i8, ptr %44, align 1, !tbaa !22
  %46 = getelementptr inbounds nuw i8, ptr %34, i64 %38
  %47 = load i8, ptr %46, align 1, !tbaa !22
  %48 = xor i8 %47, %45
  %49 = zext i8 %48 to i32
  %50 = and i32 %41, %49
  %.not37 = icmp eq i32 %50, 0
  br i1 %.not37, label %51, label %.thread

.thread:                                          ; preds = %32, %43
  br label %51

51:                                               ; preds = %17, %39, %43, %.thread, %14
  %.0 = phi i1 [ false, %14 ], [ false, %.thread ], [ true, %43 ], [ true, %39 ], [ true, %17 ]
  ret i1 %.0
}